target datalayout = "e-m:e-p270:32:32-p271:32:32-p272:64:64-i64:64-i128:128-f80:128-n8:16:32:64-S128"
target triple = "x86_64-pc-linux-gnu"

%class.QString = type { ptr }
%class.QPoint = type { i32, i32 }
%class.QEvent.base = type <{ ptr, ptr, i16, i16 }>
%class.QEvent = type <{ ptr, ptr, i16, i16, [4 x i8] }>
%class.QHelpEvent = type { %class.QEvent.base, %class.QPoint, %class.QPoint, [4 x i8] }

; Function Attrs: mustprogress nounwind uwtable
define linkonce_odr noundef nonnull align 4 dereferenceable(8) ptr @_ZNK10QHelpEvent9globalPosEv(ptr noundef nonnull align 8 dereferenceable(36) %0) #1 comdat align 2 {
  %2 = alloca ptr, align 8
  store ptr %0, ptr %2, align 8
  %3 = load ptr, ptr %2, align 8
  %4 = getelementptr inbounds %class.QHelpEvent, ptr %3, i32 0, i32 2
  ret ptr %4
}

; Function Attrs: mustprogress nounwind uwtable
define linkonce_odr noundef i32 @_ZNK6QEvent4typeEv(ptr noundef nonnull align 8 dereferenceable(20) %0) #1 comdat align 2 {
  %2 = alloca ptr, align 8
  store ptr %0, ptr %2, align 8
  %3 = load ptr, ptr %2, align 8
  %4 = getelementptr inbounds %class.QEvent, ptr %3, i32 0, i32 2
  %5 = load i16, ptr %4, align 8
  %6 = zext i16 %5 to i32
  ret i32 %6
}

; Function Attrs: mustprogress uwtable
define noundef zeroext i1 @_ZN15MenuWithToolTip5eventEP6QEvent(ptr noundef nonnull align 8 dereferenceable(48) %0, ptr noundef %1) unnamed_addr #2 align 2 personality ptr @__gxx_personality_v0 {
  %3 = alloca ptr, align 8
  %4 = alloca ptr, align 8
  %5 = alloca ptr, align 8
  %6 = alloca %class.QString, align 8
  %7 = alloca ptr, align 8
  %8 = alloca i32, align 4
  store ptr %0, ptr %3, align 8
  store ptr %1, ptr %4, align 8
  %9 = load ptr, ptr %3, align 8
  %10 = load ptr, ptr %4, align 8
  store ptr %10, ptr %5, align 8
  %11 = load ptr, ptr %5, align 8
  %12 = call noundef i32 @_ZNK6QEvent4typeEv(ptr noundef nonnull align 8 dereferenceable(20) %11)
  %13 = icmp eq i32 %12, 110
  br i1 %13, label %14, label %26

14:                                               ; preds = %2
  %15 = call noundef ptr @_ZNK5QMenu12activeActionEv(ptr noundef nonnull align 8 dereferenceable(48) %9)
  %16 = icmp ne ptr %15, null
  br i1 %16, label %17, label %26

17:                                               ; preds = %14
  %18 = load ptr, ptr %5, align 8
  %19 = call noundef nonnull align 4 dereferenceable(8) ptr @_ZNK10QHelpEvent9globalPosEv(ptr noundef nonnull align 8 dereferenceable(36) %18)
  %20 = call noundef ptr @_ZNK5QMenu12activeActionEv(ptr noundef nonnull align 8 dereferenceable(48) %9)
  call void @_ZNK7QAction7toolTipEv(ptr dead_on_unwind writable sret(%class.QString) align 8 %6, ptr noundef nonnull align 8 dereferenceable(16) %20)
  invoke void @_ZN8QToolTip8showTextERK6QPointRK7QStringP7QWidget(ptr noundef nonnull align 4 dereferenceable(8) %19, ptr noundef nonnull align 8 dereferenceable(8) %6, ptr noundef null)
          to label %21 unwind label %22

21:                                               ; preds = %17
  call void @_ZN7QStringD2Ev(ptr noundef nonnull align 8 dereferenceable(8) %6) #9
  br label %26

22:                                               ; preds = %17
  %23 = landingpad { ptr, i32 }
          cleanup
  %24 = extractvalue { ptr, i32 } %23, 0
  store ptr %24, ptr %7, align 8
  %25 = extractvalue { ptr, i32 } %23, 1
  store i32 %25, ptr %8, align 4
  call void @_ZN7QStringD2Ev(ptr noundef nonnull align 8 dereferenceable(8) %6) #9
  br label %29

26:                                               ; preds = %21, %14, %2
  %27 = load ptr, ptr %4, align 8
  %28 = call noundef zeroext i1 @_ZN5QMenu5eventEP6QEvent(ptr noundef nonnull align 8 dereferenceable(48) %9, ptr noundef %27)
  ret i1 %28

29:                                               ; preds = %22
  %30 = load ptr, ptr %7, align 8
  %31 = load i32, ptr %8, align 4
  %32 = insertvalue { ptr, i32 } poison, ptr %30, 0
  %33 = insertvalue { ptr, i32 } %32, i32 %31, 1
  resume { ptr, i32 } %33
}