; Function Attrs: mustprogress uwtable
define noundef zeroext i1 @_ZN15MenuWithToolTip5eventEP6QEvent(ptr noundef nonnull align 8 dereferenceable(48) %0, ptr noundef %1) unnamed_addr #2 align 2 personality ptr @__gxx_personality_v0 {
  %3 = alloca %class.QString, align 8
  %4 = getelementptr inbounds i8, ptr %1, i64 16
  %5 = load i16, ptr %4, align 8
  %6 = icmp eq i16 %5, 110
  br i1 %6, label %7, label %_ZN7QStringD2Ev.exit

7:                                                ; preds = %2
  %8 = tail call noundef ptr @_ZNK5QMenu12activeActionEv(ptr noundef nonnull align 8 dereferenceable(48) %0)
  %.not = icmp eq ptr %8, null
  br i1 %.not, label %_ZN7QStringD2Ev.exit, label %9

9:                                                ; preds = %7
  %10 = getelementptr inbounds i8, ptr %1, i64 28
  %11 = tail call noundef ptr @_ZNK5QMenu12activeActionEv(ptr noundef nonnull align 8 dereferenceable(48) %0)
  call void @_ZNK7QAction7toolTipEv(ptr dead_on_unwind nonnull writable sret(%class.QString) align 8 %3, ptr noundef nonnull align 8 dereferenceable(16) %11)
  invoke void @_ZN8QToolTip8showTextERK6QPointRK7QStringP7QWidget(ptr noundef nonnull align 4 dereferenceable(8) %10, ptr noundef nonnull align 8 dereferenceable(8) %3, ptr noundef null)
          to label %12 unwind label %17

12:                                               ; preds = %9
  %13 = load ptr, ptr %3, align 8
  %14 = load atomic i32, ptr %13 monotonic, align 4
  switch i32 %14, label %_ZN9QtPrivate8RefCount5derefEv.exit.i [
    i32 0, label %_ZN9QtPrivate8RefCount5derefEv.exit.thread2.i
    i32 -1, label %_ZN7QStringD2Ev.exit
  ]

_ZN9QtPrivate8RefCount5derefEv.exit.i:            ; preds = %12
  %15 = atomicrmw sub ptr %13, i32 1 seq_cst, align 4
  %.not.i = icmp eq i32 %15, 1
  br i1 %.not.i, label %_ZN9QtPrivate8RefCount5derefEv.exit._ZN9QtPrivate8RefCount5derefEv.exit.thread2_crit_edge.i, label %_ZN7QStringD2Ev.exit

_ZN9QtPrivate8RefCount5derefEv.exit._ZN9QtPrivate8RefCount5derefEv.exit.thread2_crit_edge.i: ; preds = %_ZN9QtPrivate8RefCount5derefEv.exit.i
  %.pre.i = load ptr, ptr %3, align 8
  br label %_ZN9QtPrivate8RefCount5derefEv.exit.thread2.i

_ZN9QtPrivate8RefCount5derefEv.exit.thread2.i:    ; preds = %_ZN9QtPrivate8RefCount5derefEv.exit._ZN9QtPrivate8RefCount5derefEv.exit.thread2_crit_edge.i, %12
  %16 = phi ptr [ %.pre.i, %_ZN9QtPrivate8RefCount5derefEv.exit._ZN9QtPrivate8RefCount5derefEv.exit.thread2_crit_edge.i ], [ %13, %12 ]
  call void @_ZN10QArrayData10deallocateEPS_mm(ptr noundef %16, i64 noundef 2, i64 noundef 8) #11
  br label %_ZN7QStringD2Ev.exit

17:                                               ; preds = %9
  %18 = landingpad { ptr, i32 }
          cleanup
  call void @_ZN7QStringD2Ev(ptr noundef nonnull align 8 dereferenceable(8) %3) #11
  resume { ptr, i32 } %18

_ZN7QStringD2Ev.exit:                             ; preds = %_ZN9QtPrivate8RefCount5derefEv.exit.thread2.i, %_ZN9QtPrivate8RefCount5derefEv.exit.i, %12, %7, %2
  %19 = call noundef zeroext i1 @_ZN5QMenu5eventEP6QEvent(ptr noundef nonnull align 8 dereferenceable(48) %0, ptr noundef nonnull %1)
  ret i1 %19
}